target datalayout = "e-m:e-p270:32:32-p271:32:32-p272:64:64-i64:64-i128:128-f80:128-n8:16:32:64-S128"
target triple = "x86_64-pc-linux-gnu"

%class.FpuStackSim = type <{ ptr, i32, [8 x i32], [4 x i8] }>

; Function Attrs: mustprogress nounwind uwtable
define hidden void @_ZN11FpuStackSim14dec_stack_sizeEv(ptr noundef nonnull align 8 dereferenceable(44) %0) #1 align 2 {
  %2 = alloca ptr, align 8
  store ptr %0, ptr %2, align 8
  %3 = load ptr, ptr %2, align 8
  %4 = getelementptr inbounds %class.FpuStackSim, ptr %3, i32 0, i32 1
  %5 = load i32, ptr %4, align 8
  %6 = add nsw i32 %5, -1
  store i32 %6, ptr %4, align 8
  ret void
}

; Function Attrs: mustprogress nounwind uwtable
define hidden void @_ZN11FpuStackSim11set_regs_atEii(ptr noundef nonnull align 8 dereferenceable(44) %0, i32 noundef %1, i32 noundef %2) #1 align 2 {
  %4 = alloca ptr, align 8
  %5 = alloca i32, align 4
  %6 = alloca i32, align 4
  store ptr %0, ptr %4, align 8
  store i32 %1, ptr %5, align 4
  store i32 %2, ptr %6, align 4
  %7 = load ptr, ptr %4, align 8
  %8 = load i32, ptr %6, align 4
  %9 = getelementptr inbounds %class.FpuStackSim, ptr %7, i32 0, i32 2
  %10 = load i32, ptr %5, align 4
  %11 = sext i32 %10 to i64
  %12 = getelementptr inbounds [8 x i32], ptr %9, i64 0, i64 %11
  store i32 %8, ptr %12, align 4
  ret void
}

; Function Attrs: mustprogress nounwind uwtable
define linkonce_odr hidden noundef i32 @_ZNK11FpuStackSim9tos_indexEv(ptr noundef nonnull align 8 dereferenceable(44) %0) #1 comdat align 2 {
  %2 = alloca ptr, align 8
  store ptr %0, ptr %2, align 8
  %3 = load ptr, ptr %2, align 8
  %4 = getelementptr inbounds %class.FpuStackSim, ptr %3, i32 0, i32 1
  %5 = load i32, ptr %4, align 8
  %6 = sub nsw i32 %5, 1
  ret i32 %6
}

; Function Attrs: mustprogress nounwind uwtable
define hidden void @_ZN11FpuStackSim3popEi(ptr noundef nonnull align 8 dereferenceable(44) %0, i32 noundef %1) #1 align 2 {
  %3 = alloca ptr, align 8
  %4 = alloca i32, align 4
  store ptr %0, ptr %3, align 8
  store i32 %1, ptr %4, align 4
  %5 = load ptr, ptr %3, align 8
  %6 = call noundef i32 @_ZNK11FpuStackSim9tos_indexEv(ptr noundef nonnull align 8 dereferenceable(44) %5)
  call void @_ZN11FpuStackSim11set_regs_atEii(ptr noundef nonnull align 8 dereferenceable(44) %5, i32 noundef %6, i32 noundef -1)
  call void @_ZN11FpuStackSim14dec_stack_sizeEv(ptr noundef nonnull align 8 dereferenceable(44) %5)
  ret void
}