; Function Attrs: mustprogress nofree norecurse nosync nounwind willreturn memory(argmem: readwrite) uwtable
define hidden void @_ZN11FpuStackSim3popEi(ptr nocapture noundef nonnull align 8 dereferenceable(44) %0, i32 noundef %1) local_unnamed_addr #2 align 2 {
  %3 = getelementptr inbounds i8, ptr %0, i64 8
  %4 = load i32, ptr %3, align 8
  %5 = add nsw i32 %4, -1
  %6 = getelementptr inbounds i8, ptr %0, i64 12
  %7 = sext i32 %5 to i64
  %8 = getelementptr inbounds [8 x i32], ptr %6, i64 0, i64 %7
  store i32 -1, ptr %8, align 4
  %9 = load i32, ptr %3, align 8
  %10 = add nsw i32 %9, -1
  store i32 %10, ptr %3, align 8
  ret void
}